; Function Attrs: mustprogress uwtable
define void @_ZNK6casadi15KinsolInterface6jtimesERNS_12KinsolMemoryEP17_generic_N_VectorS4_S4_Pi(ptr noundef nonnull align 8 dereferenceable(1696) %0, ptr nocapture noundef nonnull readonly align 8 dereferenceable(168) %1, ptr nocapture noundef readonly %2, ptr nocapture noundef readonly %3, ptr nocapture noundef readonly %4, ptr nocapture noundef readnone %5) local_unnamed_addr #3 align 2 {
  %7 = getelementptr inbounds i8, ptr %0, i64 176
  %8 = load i64, ptr %7, align 8
  %9 = getelementptr inbounds i8, ptr %1, i64 56
  %10 = icmp eq i64 %8, 0
  br i1 %10, label %_ZSt6copy_nIPPKdmS2_ET1_T_T0_S3_.exit, label %_ZSt8__copy_nIPPKdmS2_ET1_T_T0_S3_St26random_access_iterator_tag.exit.i

_ZSt8__copy_nIPPKdmS2_ET1_T_T0_S3_St26random_access_iterator_tag.exit.i: ; preds = %6
  %11 = load ptr, ptr %9, align 8
  %12 = getelementptr inbounds i8, ptr %1, i64 112
  %13 = load ptr, ptr %12, align 8
  %.idx.i.i = shl nsw i64 %8, 3
  tail call void @llvm.memmove.p0.p0.i64(ptr align 8 %11, ptr align 8 %13, i64 %.idx.i.i, i1 false)
  br label %_ZSt6copy_nIPPKdmS2_ET1_T_T0_S3_.exit

_ZSt6copy_nIPPKdmS2_ET1_T_T0_S3_.exit:            ; preds = %6, %_ZSt8__copy_nIPPKdmS2_ET1_T_T0_S3_St26random_access_iterator_tag.exit.i
  %14 = load ptr, ptr %4, align 8
  %15 = getelementptr inbounds i8, ptr %14, i64 16
  %16 = load ptr, ptr %15, align 8
  %17 = load ptr, ptr %9, align 8
  %18 = getelementptr inbounds i8, ptr %0, i64 1576
  %19 = load i64, ptr %18, align 8
  %20 = getelementptr inbounds ptr, ptr %17, i64 %19
  store ptr %16, ptr %20, align 8
  %21 = load ptr, ptr %2, align 8
  %22 = getelementptr inbounds i8, ptr %21, i64 16
  %23 = load ptr, ptr %22, align 8
  %24 = load ptr, ptr %9, align 8
  %25 = load i64, ptr %7, align 8
  %26 = getelementptr inbounds ptr, ptr %24, i64 %25
  store ptr %23, ptr %26, align 8
  %27 = load ptr, ptr %3, align 8
  %28 = getelementptr inbounds i8, ptr %27, i64 16
  %29 = load ptr, ptr %28, align 8
  %30 = getelementptr inbounds i8, ptr %1, i64 64
  %31 = load ptr, ptr %30, align 8
  store ptr %29, ptr %31, align 8
  %32 = getelementptr inbounds i8, ptr %0, i64 1688
  %33 = load ptr, ptr %9, align 8
  %34 = load ptr, ptr %30, align 8
  %35 = getelementptr inbounds i8, ptr %1, i64 72
  %36 = load ptr, ptr %35, align 8
  %37 = getelementptr inbounds i8, ptr %1, i64 80
  %38 = load ptr, ptr %37, align 8
  %39 = tail call noundef i32 @_ZNK6casadi8FunctionclEPPKdPPdPxS4_i(ptr noundef nonnull align 8 dereferenceable(8) %32, ptr noundef %33, ptr noundef %34, ptr noundef %36, ptr noundef %38, i32 noundef 0)
  ret void
}